target datalayout = "e-m:e-p270:32:32-p271:32:32-p272:64:64-i64:64-i128:128-f80:128-n8:16:32:64-S128"
target triple = "x86_64-pc-linux-gnu"

; Function Attrs: mustprogress uwtable
define hidden noundef i32 @_ZN5ceres8internal12LinearSolver26LinearSolverForZeroEBlocksENS_16LinearSolverTypeE(i32 noundef %0) #3 align 2 {
  %2 = alloca i32, align 4
  %3 = alloca i32, align 4
  store i32 %0, ptr %3, align 4, !tbaa !16
  %4 = load i32, ptr %3, align 4, !tbaa !16
  %5 = call noundef zeroext i1 @_ZN5ceres11IsSchurTypeENS_16LinearSolverTypeE(i32 noundef %4)
  br i1 %5, label %8, label %6

6:                                                ; preds = %1
  %7 = load i32, ptr %3, align 4, !tbaa !16
  store i32 %7, ptr %2, align 4
  br label %22

8:                                                ; preds = %1
  %9 = load i32, ptr %3, align 4, !tbaa !16
  %10 = icmp eq i32 %9, 4
  br i1 %10, label %11, label %12

11:                                               ; preds = %8
  store i32 2, ptr %2, align 4
  br label %22

12:                                               ; preds = %8
  %13 = load i32, ptr %3, align 4, !tbaa !16
  %14 = icmp eq i32 %13, 3
  br i1 %14, label %15, label %16

15:                                               ; preds = %12
  store i32 1, ptr %2, align 4
  br label %22

16:                                               ; preds = %12
  %17 = load i32, ptr %3, align 4, !tbaa !16
  %18 = icmp eq i32 %17, 5
  br i1 %18, label %19, label %20

19:                                               ; preds = %16
  store i32 6, ptr %2, align 4
  br label %22

20:                                               ; preds = %16
  %21 = load i32, ptr %3, align 4, !tbaa !16
  store i32 %21, ptr %2, align 4
  br label %22

22:                                               ; preds = %20, %19, %15, %11, %6
  %23 = load i32, ptr %2, align 4
  ret i32 %23
}