; Function Attrs: mustprogress uwtable
define hidden noundef i32 @_ZN5ceres8internal12LinearSolver26LinearSolverForZeroEBlocksENS_16LinearSolverTypeE(i32 noundef %0) local_unnamed_addr #7 align 2 {
  %2 = tail call noundef zeroext i1 @_ZN5ceres11IsSchurTypeENS_16LinearSolverTypeE(i32 noundef %0)
  br i1 %2, label %3, label %6

3:                                                ; preds = %1
  %switch.tableidx = add i32 %0, -3
  %4 = icmp ult i32 %switch.tableidx, 3
  br i1 %4, label %switch.lookup, label %6

switch.lookup:                                    ; preds = %3
  %5 = zext nneg i32 %switch.tableidx to i64
  %switch.gep = getelementptr inbounds nuw [3 x i32], ptr @switch.table._ZN5ceres8internal12LinearSolver26LinearSolverForZeroEBlocksENS_16LinearSolverTypeE, i64 0, i64 %5
  %switch.load = load i32, ptr %switch.gep, align 4
  br label %6

6:                                                ; preds = %3, %switch.lookup, %1
  %.0 = phi i32 [ %0, %1 ], [ %switch.load, %switch.lookup ], [ %0, %3 ]
  ret i32 %.0
}